target datalayout = "e-m:e-p270:32:32-p271:32:32-p272:64:64-i64:64-i128:128-f80:128-n8:16:32:64-S128"
target triple = "x86_64-pc-linux-gnu"

; Function Attrs: nounwind uwtable
define internal i32 @callout_tag_table_clear(ptr noundef %0) #0 {
  %2 = alloca ptr, align 8
  store ptr %0, ptr %2, align 8, !tbaa !37
  %3 = load ptr, ptr %2, align 8, !tbaa !37
  %4 = icmp ne ptr %3, null
  br i1 %4, label %5, label %8

5:                                                ; preds = %1
  %6 = load ptr, ptr %2, align 8, !tbaa !37
  %7 = call i32 @onig_st_foreach(ptr noundef %6, ptr noundef @i_free_callout_tag_entry, i64 noundef 0)
  br label %8

8:                                                ; preds = %5, %1
  ret i32 0
}

; Function Attrs: nounwind uwtable
define dso_local i32 @onig_callout_tag_table_free(ptr noundef %0) #0 {
  %2 = alloca i32, align 4
  %3 = alloca ptr, align 8
  %4 = alloca ptr, align 8
  %5 = alloca i32, align 4
  %6 = alloca i32, align 4
  store ptr %0, ptr %3, align 8, !tbaa !9
  call void @llvm.lifetime.start.p0(i64 8, ptr %4) #8
  %7 = load ptr, ptr %3, align 8, !tbaa !9
  store ptr %7, ptr %4, align 8, !tbaa !37
  %8 = load ptr, ptr %4, align 8, !tbaa !37
  %9 = icmp ne ptr %8, null
  br i1 %9, label %10, label %22

10:                                               ; preds = %1
  call void @llvm.lifetime.start.p0(i64 4, ptr %5) #8
  %11 = load ptr, ptr %4, align 8, !tbaa !37
  %12 = call i32 @callout_tag_table_clear(ptr noundef %11)
  store i32 %12, ptr %5, align 4, !tbaa !10
  %13 = load i32, ptr %5, align 4, !tbaa !10
  %14 = icmp ne i32 %13, 0
  br i1 %14, label %15, label %17

15:                                               ; preds = %10
  %16 = load i32, ptr %5, align 4, !tbaa !10
  store i32 %16, ptr %2, align 4
  store i32 1, ptr %6, align 4
  br label %19

17:                                               ; preds = %10
  %18 = load ptr, ptr %4, align 8, !tbaa !37
  call void @onig_st_free_table(ptr noundef %18)
  store i32 0, ptr %6, align 4
  br label %19

19:                                               ; preds = %17, %15
  call void @llvm.lifetime.end.p0(i64 4, ptr %5) #8
  %20 = load i32, ptr %6, align 4
  switch i32 %20, label %23 [
    i32 0, label %21
  ]

21:                                               ; preds = %19
  br label %22

22:                                               ; preds = %21, %1
  store i32 0, ptr %2, align 4
  store i32 1, ptr %6, align 4
  br label %23

23:                                               ; preds = %22, %19
  call void @llvm.lifetime.end.p0(i64 8, ptr %4) #8
  %24 = load i32, ptr %2, align 4
  ret i32 %24
}